
_interrupt:

;p7e.c,32 :: 		void interrupt(){
;p7e.c,36 :: 		if(PIR1.ADIF){
	BTFSS       PIR1+0, 6 
	GOTO        L_interrupt0
;p7e.c,37 :: 		PIR1.ADIF = 0;
	BCF         PIR1+0, 6 
;p7e.c,38 :: 		lectura = ADRESL + (ADRESH << 8);
	MOVF        ADRESH+0, 0 
	MOVWF       R1 
	CLRF        R0 
	MOVF        ADRESL+0, 0 
	ADDWF       R0, 1 
	MOVLW       0
	ADDWFC      R1, 1 
	MOVF        R0, 0 
	MOVWF       _lectura+0 
	MOVF        R1, 0 
	MOVWF       _lectura+1 
;p7e.c,39 :: 		voltaje = lectura * (5.0 / 1024.0);
	CALL        _int2double+0, 0
	MOVLW       0
	MOVWF       R4 
	MOVLW       0
	MOVWF       R5 
	MOVLW       32
	MOVWF       R6 
	MOVLW       119
	MOVWF       R7 
	CALL        _Mul_32x32_FP+0, 0
	MOVF        R0, 0 
	MOVWF       _voltaje+0 
	MOVF        R1, 0 
	MOVWF       _voltaje+1 
	MOVF        R2, 0 
	MOVWF       _voltaje+2 
	MOVF        R3, 0 
	MOVWF       _voltaje+3 
;p7e.c,40 :: 		mostrar = 1;
	MOVLW       1
	MOVWF       _mostrar+0 
;p7e.c,41 :: 		}
L_interrupt0:
;p7e.c,43 :: 		if(INTCON.TMR0IF){
	BTFSS       INTCON+0, 2 
	GOTO        L_interrupt1
;p7e.c,44 :: 		INTCON.TMR0IF = 0;
	BCF         INTCON+0, 2 
;p7e.c,45 :: 		TMR0H = (alfa >> 8);
	MOVF        _alfa+1, 0 
	MOVWF       R0 
	MOVLW       0
	BTFSC       _alfa+1, 7 
	MOVLW       255
	MOVWF       R1 
	MOVF        R0, 0 
	MOVWF       TMR0H+0 
;p7e.c,46 :: 		TMR0L = alfa;
	MOVF        _alfa+0, 0 
	MOVWF       TMR0L+0 
;p7e.c,47 :: 		PORTB.B0++;
	CLRF        R0 
	BTFSC       PORTB+0, 0 
	INCF        R0, 1 
	MOVLW       0
	MOVWF       R1 
	INFSNZ      R0, 1 
	INCF        R1, 1 
	BTFSC       R0, 0 
	GOTO        L__interrupt25
	BCF         PORTB+0, 0 
	GOTO        L__interrupt26
L__interrupt25:
	BSF         PORTB+0, 0 
L__interrupt26:
;p7e.c,48 :: 		ADCON0.GO = 1;
	BSF         ADCON0+0, 2 
;p7e.c,49 :: 		}
L_interrupt1:
;p7e.c,51 :: 		if(INTCON3.INT1IF){
	BTFSS       INTCON3+0, 0 
	GOTO        L_interrupt2
;p7e.c,52 :: 		INTCON3.INT1IF = 0;
	BCF         INTCON3+0, 0 
;p7e.c,53 :: 		mostrar = 1;
	MOVLW       1
	MOVWF       _mostrar+0 
;p7e.c,54 :: 		if(estado == 7){
	MOVF        _estado+0, 0 
	XORLW       7
	BTFSS       STATUS+0, 2 
	GOTO        L_interrupt3
;p7e.c,55 :: 		estado = 0;
	CLRF        _estado+0 
;p7e.c,56 :: 		}
	GOTO        L_interrupt4
L_interrupt3:
;p7e.c,58 :: 		estado++;
	INCF        _estado+0, 1 
;p7e.c,59 :: 		}
L_interrupt4:
;p7e.c,60 :: 		}
L_interrupt2:
;p7e.c,62 :: 		if(mostrar){
	MOVF        _mostrar+0, 1 
	BTFSC       STATUS+0, 2 
	GOTO        L_interrupt5
;p7e.c,63 :: 		mostrar = 0;
	CLRF        _mostrar+0 
;p7e.c,64 :: 		valorKpa = 54.2 * voltaje - 14.11;
	MOVLW       205
	MOVWF       R0 
	MOVLW       204
	MOVWF       R1 
	MOVLW       88
	MOVWF       R2 
	MOVLW       132
	MOVWF       R3 
	MOVF        _voltaje+0, 0 
	MOVWF       R4 
	MOVF        _voltaje+1, 0 
	MOVWF       R5 
	MOVF        _voltaje+2, 0 
	MOVWF       R6 
	MOVF        _voltaje+3, 0 
	MOVWF       R7 
	CALL        _Mul_32x32_FP+0, 0
	MOVLW       143
	MOVWF       R4 
	MOVLW       194
	MOVWF       R5 
	MOVLW       97
	MOVWF       R6 
	MOVLW       130
	MOVWF       R7 
	CALL        _Sub_32x32_FP+0, 0
	MOVF        R0, 0 
	MOVWF       _valorKpa+0 
	MOVF        R1, 0 
	MOVWF       _valorKpa+1 
	MOVF        R2, 0 
	MOVWF       _valorKpa+2 
	MOVF        R3, 0 
	MOVWF       _valorKpa+3 
;p7e.c,65 :: 		if(estado == kPa){
	MOVF        _estado+0, 0 
	XORLW       0
	BTFSS       STATUS+0, 2 
	GOTO        L_interrupt6
;p7e.c,66 :: 		valorMostrar = valorKpa;
	MOVF        _valorKpa+0, 0 
	MOVWF       _valorMostrar+0 
	MOVF        _valorKpa+1, 0 
	MOVWF       _valorMostrar+1 
	MOVF        _valorKpa+2, 0 
	MOVWF       _valorMostrar+2 
	MOVF        _valorKpa+3, 0 
	MOVWF       _valorMostrar+3 
;p7e.c,67 :: 		strcpy(textoMostrar, "kPa");
	MOVLW       interrupt_textoMostrar_L0+0
	MOVWF       FARG_strcpy_to+0 
	MOVLW       hi_addr(interrupt_textoMostrar_L0+0)
	MOVWF       FARG_strcpy_to+1 
	MOVLW       ?lstr1_p7e+0
	MOVWF       FARG_strcpy_from+0 
	MOVLW       hi_addr(?lstr1_p7e+0)
	MOVWF       FARG_strcpy_from+1 
	CALL        _strcpy+0, 0
;p7e.c,68 :: 		}
	GOTO        L_interrupt7
L_interrupt6:
;p7e.c,69 :: 		else if(estado == PSI){
	MOVF        _estado+0, 0 
	XORLW       1
	BTFSS       STATUS+0, 2 
	GOTO        L_interrupt8
;p7e.c,70 :: 		valorMostrar = 6.8927 * valorKpa;
	MOVLW       0
	MOVWF       R0 
	MOVLW       145
	MOVWF       R1 
	MOVLW       92
	MOVWF       R2 
	MOVLW       129
	MOVWF       R3 
	MOVF        _valorKpa+0, 0 
	MOVWF       R4 
	MOVF        _valorKpa+1, 0 
	MOVWF       R5 
	MOVF        _valorKpa+2, 0 
	MOVWF       R6 
	MOVF        _valorKpa+3, 0 
	MOVWF       R7 
	CALL        _Mul_32x32_FP+0, 0
	MOVF        R0, 0 
	MOVWF       _valorMostrar+0 
	MOVF        R1, 0 
	MOVWF       _valorMostrar+1 
	MOVF        R2, 0 
	MOVWF       _valorMostrar+2 
	MOVF        R3, 0 
	MOVWF       _valorMostrar+3 
;p7e.c,71 :: 		strcpy(textoMostrar, "PSI");
	MOVLW       interrupt_textoMostrar_L0+0
	MOVWF       FARG_strcpy_to+0 
	MOVLW       hi_addr(interrupt_textoMostrar_L0+0)
	MOVWF       FARG_strcpy_to+1 
	MOVLW       ?lstr2_p7e+0
	MOVWF       FARG_strcpy_from+0 
	MOVLW       hi_addr(?lstr2_p7e+0)
	MOVWF       FARG_strcpy_from+1 
	CALL        _strcpy+0, 0
;p7e.c,72 :: 		}
	GOTO        L_interrupt9
L_interrupt8:
;p7e.c,73 :: 		else if(estado == Atm){
	MOVF        _estado+0, 0 
	XORLW       2
	BTFSS       STATUS+0, 2 
	GOTO        L_interrupt10
;p7e.c,74 :: 		valorMostrar = 101.325 * valorKpa;
	MOVLW       102
	MOVWF       R0 
	MOVLW       166
	MOVWF       R1 
	MOVLW       74
	MOVWF       R2 
	MOVLW       133
	MOVWF       R3 
	MOVF        _valorKpa+0, 0 
	MOVWF       R4 
	MOVF        _valorKpa+1, 0 
	MOVWF       R5 
	MOVF        _valorKpa+2, 0 
	MOVWF       R6 
	MOVF        _valorKpa+3, 0 
	MOVWF       R7 
	CALL        _Mul_32x32_FP+0, 0
	MOVF        R0, 0 
	MOVWF       _valorMostrar+0 
	MOVF        R1, 0 
	MOVWF       _valorMostrar+1 
	MOVF        R2, 0 
	MOVWF       _valorMostrar+2 
	MOVF        R3, 0 
	MOVWF       _valorMostrar+3 
;p7e.c,75 :: 		strcpy(textoMostrar, "ATM");
	MOVLW       interrupt_textoMostrar_L0+0
	MOVWF       FARG_strcpy_to+0 
	MOVLW       hi_addr(interrupt_textoMostrar_L0+0)
	MOVWF       FARG_strcpy_to+1 
	MOVLW       ?lstr3_p7e+0
	MOVWF       FARG_strcpy_from+0 
	MOVLW       hi_addr(?lstr3_p7e+0)
	MOVWF       FARG_strcpy_from+1 
	CALL        _strcpy+0, 0
;p7e.c,76 :: 		}
	GOTO        L_interrupt11
L_interrupt10:
;p7e.c,77 :: 		else if(estado == mBar){
	MOVF        _estado+0, 0 
	XORLW       3
	BTFSS       STATUS+0, 2 
	GOTO        L_interrupt12
;p7e.c,78 :: 		valorMostrar = 0.1 * valorkPa;
	MOVLW       205
	MOVWF       R0 
	MOVLW       204
	MOVWF       R1 
	MOVLW       76
	MOVWF       R2 
	MOVLW       123
	MOVWF       R3 
	MOVF        _valorKpa+0, 0 
	MOVWF       R4 
	MOVF        _valorKpa+1, 0 
	MOVWF       R5 
	MOVF        _valorKpa+2, 0 
	MOVWF       R6 
	MOVF        _valorKpa+3, 0 
	MOVWF       R7 
	CALL        _Mul_32x32_FP+0, 0
	MOVF        R0, 0 
	MOVWF       _valorMostrar+0 
	MOVF        R1, 0 
	MOVWF       _valorMostrar+1 
	MOVF        R2, 0 
	MOVWF       _valorMostrar+2 
	MOVF        R3, 0 
	MOVWF       _valorMostrar+3 
;p7e.c,79 :: 		strcpy(textoMostrar, "mBar");
	MOVLW       interrupt_textoMostrar_L0+0
	MOVWF       FARG_strcpy_to+0 
	MOVLW       hi_addr(interrupt_textoMostrar_L0+0)
	MOVWF       FARG_strcpy_to+1 
	MOVLW       ?lstr4_p7e+0
	MOVWF       FARG_strcpy_from+0 
	MOVLW       hi_addr(?lstr4_p7e+0)
	MOVWF       FARG_strcpy_from+1 
	CALL        _strcpy+0, 0
;p7e.c,80 :: 		}
	GOTO        L_interrupt13
L_interrupt12:
;p7e.c,81 :: 		else if(estado == mmHg){
	MOVF        _estado+0, 0 
	XORLW       4
	BTFSS       STATUS+0, 2 
	GOTO        L_interrupt14
;p7e.c,82 :: 		valorMostrar =  0.13328 * valorKpa;
	MOVLW       141
	MOVWF       R0 
	MOVLW       122
	MOVWF       R1 
	MOVLW       8
	MOVWF       R2 
	MOVLW       124
	MOVWF       R3 
	MOVF        _valorKpa+0, 0 
	MOVWF       R4 
	MOVF        _valorKpa+1, 0 
	MOVWF       R5 
	MOVF        _valorKpa+2, 0 
	MOVWF       R6 
	MOVF        _valorKpa+3, 0 
	MOVWF       R7 
	CALL        _Mul_32x32_FP+0, 0
	MOVF        R0, 0 
	MOVWF       _valorMostrar+0 
	MOVF        R1, 0 
	MOVWF       _valorMostrar+1 
	MOVF        R2, 0 
	MOVWF       _valorMostrar+2 
	MOVF        R3, 0 
	MOVWF       _valorMostrar+3 
;p7e.c,83 :: 		strcpy(textoMostrar, "mmHg");
	MOVLW       interrupt_textoMostrar_L0+0
	MOVWF       FARG_strcpy_to+0 
	MOVLW       hi_addr(interrupt_textoMostrar_L0+0)
	MOVWF       FARG_strcpy_to+1 
	MOVLW       ?lstr5_p7e+0
	MOVWF       FARG_strcpy_from+0 
	MOVLW       hi_addr(?lstr5_p7e+0)
	MOVWF       FARG_strcpy_from+1 
	CALL        _strcpy+0, 0
;p7e.c,84 :: 		}else if(estado == Nm2){
	GOTO        L_interrupt15
L_interrupt14:
	MOVF        _estado+0, 0 
	XORLW       5
	BTFSS       STATUS+0, 2 
	GOTO        L_interrupt16
;p7e.c,85 :: 		valorMostrar = 0.001 * valorKpa;
	MOVLW       111
	MOVWF       R0 
	MOVLW       18
	MOVWF       R1 
	MOVLW       3
	MOVWF       R2 
	MOVLW       117
	MOVWF       R3 
	MOVF        _valorKpa+0, 0 
	MOVWF       R4 
	MOVF        _valorKpa+1, 0 
	MOVWF       R5 
	MOVF        _valorKpa+2, 0 
	MOVWF       R6 
	MOVF        _valorKpa+3, 0 
	MOVWF       R7 
	CALL        _Mul_32x32_FP+0, 0
	MOVF        R0, 0 
	MOVWF       _valorMostrar+0 
	MOVF        R1, 0 
	MOVWF       _valorMostrar+1 
	MOVF        R2, 0 
	MOVWF       _valorMostrar+2 
	MOVF        R3, 0 
	MOVWF       _valorMostrar+3 
;p7e.c,86 :: 		strcpy(textoMostrar, "N/m^2");
	MOVLW       interrupt_textoMostrar_L0+0
	MOVWF       FARG_strcpy_to+0 
	MOVLW       hi_addr(interrupt_textoMostrar_L0+0)
	MOVWF       FARG_strcpy_to+1 
	MOVLW       ?lstr6_p7e+0
	MOVWF       FARG_strcpy_from+0 
	MOVLW       hi_addr(?lstr6_p7e+0)
	MOVWF       FARG_strcpy_from+1 
	CALL        _strcpy+0, 0
;p7e.c,87 :: 		}else if(estado == kgcm2){
	GOTO        L_interrupt17
L_interrupt16:
	MOVF        _estado+0, 0 
	XORLW       6
	BTFSS       STATUS+0, 2 
	GOTO        L_interrupt18
;p7e.c,88 :: 		valorMostrar = 98.1 * valorKpa;
	MOVLW       51
	MOVWF       R0 
	MOVLW       51
	MOVWF       R1 
	MOVLW       68
	MOVWF       R2 
	MOVLW       133
	MOVWF       R3 
	MOVF        _valorKpa+0, 0 
	MOVWF       R4 
	MOVF        _valorKpa+1, 0 
	MOVWF       R5 
	MOVF        _valorKpa+2, 0 
	MOVWF       R6 
	MOVF        _valorKpa+3, 0 
	MOVWF       R7 
	CALL        _Mul_32x32_FP+0, 0
	MOVF        R0, 0 
	MOVWF       _valorMostrar+0 
	MOVF        R1, 0 
	MOVWF       _valorMostrar+1 
	MOVF        R2, 0 
	MOVWF       _valorMostrar+2 
	MOVF        R3, 0 
	MOVWF       _valorMostrar+3 
;p7e.c,89 :: 		strcpy(textoMostrar, "Kg/cm^2");
	MOVLW       interrupt_textoMostrar_L0+0
	MOVWF       FARG_strcpy_to+0 
	MOVLW       hi_addr(interrupt_textoMostrar_L0+0)
	MOVWF       FARG_strcpy_to+1 
	MOVLW       ?lstr7_p7e+0
	MOVWF       FARG_strcpy_from+0 
	MOVLW       hi_addr(?lstr7_p7e+0)
	MOVWF       FARG_strcpy_from+1 
	CALL        _strcpy+0, 0
;p7e.c,90 :: 		}else if(estado == kpcm2){
	GOTO        L_interrupt19
L_interrupt18:
	MOVF        _estado+0, 0 
	XORLW       7
	BTFSS       STATUS+0, 2 
	GOTO        L_interrupt20
;p7e.c,91 :: 		valorMostrar = 98.1 * valorKpa;
	MOVLW       51
	MOVWF       R0 
	MOVLW       51
	MOVWF       R1 
	MOVLW       68
	MOVWF       R2 
	MOVLW       133
	MOVWF       R3 
	MOVF        _valorKpa+0, 0 
	MOVWF       R4 
	MOVF        _valorKpa+1, 0 
	MOVWF       R5 
	MOVF        _valorKpa+2, 0 
	MOVWF       R6 
	MOVF        _valorKpa+3, 0 
	MOVWF       R7 
	CALL        _Mul_32x32_FP+0, 0
	MOVF        R0, 0 
	MOVWF       _valorMostrar+0 
	MOVF        R1, 0 
	MOVWF       _valorMostrar+1 
	MOVF        R2, 0 
	MOVWF       _valorMostrar+2 
	MOVF        R3, 0 
	MOVWF       _valorMostrar+3 
;p7e.c,92 :: 		strcpy(textoMostrar, "kp/cm^2");
	MOVLW       interrupt_textoMostrar_L0+0
	MOVWF       FARG_strcpy_to+0 
	MOVLW       hi_addr(interrupt_textoMostrar_L0+0)
	MOVWF       FARG_strcpy_to+1 
	MOVLW       ?lstr8_p7e+0
	MOVWF       FARG_strcpy_from+0 
	MOVLW       hi_addr(?lstr8_p7e+0)
	MOVWF       FARG_strcpy_from+1 
	CALL        _strcpy+0, 0
;p7e.c,93 :: 		}
L_interrupt20:
L_interrupt19:
L_interrupt17:
L_interrupt15:
L_interrupt13:
L_interrupt11:
L_interrupt9:
L_interrupt7:
;p7e.c,94 :: 		Lcd_Cmd(_LCD_CLEAR);
	MOVLW       1
	MOVWF       FARG_Lcd_Cmd_out_char+0 
	CALL        _Lcd_Cmd+0, 0
;p7e.c,95 :: 		FloatToStr(valorMostrar, texto);
	MOVF        _valorMostrar+0, 0 
	MOVWF       FARG_FloatToStr_fnum+0 
	MOVF        _valorMostrar+1, 0 
	MOVWF       FARG_FloatToStr_fnum+1 
	MOVF        _valorMostrar+2, 0 
	MOVWF       FARG_FloatToStr_fnum+2 
	MOVF        _valorMostrar+3, 0 
	MOVWF       FARG_FloatToStr_fnum+3 
	MOVLW       interrupt_texto_L0+0
	MOVWF       FARG_FloatToStr_str+0 
	MOVLW       hi_addr(interrupt_texto_L0+0)
	MOVWF       FARG_FloatToStr_str+1 
	CALL        _FloatToStr+0, 0
;p7e.c,96 :: 		Lcd_Out(1, 1, texto);
	MOVLW       1
	MOVWF       FARG_Lcd_Out_row+0 
	MOVLW       1
	MOVWF       FARG_Lcd_Out_column+0 
	MOVLW       interrupt_texto_L0+0
	MOVWF       FARG_Lcd_Out_text+0 
	MOVLW       hi_addr(interrupt_texto_L0+0)
	MOVWF       FARG_Lcd_Out_text+1 
	CALL        _Lcd_Out+0, 0
;p7e.c,97 :: 		Lcd_Out_Cp(textoMostrar);
	MOVLW       interrupt_textoMostrar_L0+0
	MOVWF       FARG_Lcd_Out_CP_text+0 
	MOVLW       hi_addr(interrupt_textoMostrar_L0+0)
	MOVWF       FARG_Lcd_Out_CP_text+1 
	CALL        _Lcd_Out_CP+0, 0
;p7e.c,98 :: 		}
L_interrupt5:
;p7e.c,99 :: 		}
L_end_interrupt:
L__interrupt24:
	RETFIE      1
; end of _interrupt

_main:

;p7e.c,100 :: 		void main() {
;p7e.c,101 :: 		INTCON2.INTEDG1 = 1;
	BSF         INTCON2+0, 5 
;p7e.c,102 :: 		INTCON3.INT1IF = 0;
	BCF         INTCON3+0, 0 
;p7e.c,103 :: 		INTCON3.INT1IE = 0;
	BCF         INTCON3+0, 3 
;p7e.c,107 :: 		T0CON = 0b00010100;
	MOVLW       20
	MOVWF       T0CON+0 
;p7e.c,109 :: 		TRISB.B0 = 0;
	BCF         TRISB+0, 0 
;p7e.c,110 :: 		TRISE.B2 = 1;
	BSF         TRISE+0, 2 
;p7e.c,111 :: 		ADCON0 = 0b10111001;
	MOVLW       185
	MOVWF       ADCON0+0 
;p7e.c,112 :: 		ADCON1 = 0b10000000;
	MOVLW       128
	MOVWF       ADCON1+0 
;p7e.c,113 :: 		PIR1.ADIF = 0;
	BCF         PIR1+0, 6 
;p7e.c,114 :: 		PIE1.ADIE = 1;
	BSF         PIE1+0, 6 
;p7e.c,116 :: 		INTCON.TMR0IE = 1;
	BSF         INTCON+0, 5 
;p7e.c,117 :: 		INTCON.TMR0IF = 0;
	BCF         INTCON+0, 2 
;p7e.c,120 :: 		INTCON.PEIE = 1;
	BSF         INTCON+0, 6 
;p7e.c,121 :: 		INTCON.GIE = 1;
	BSF         INTCON+0, 7 
;p7e.c,123 :: 		TMR0H = (alfa >> 8);
	MOVF        _alfa+1, 0 
	MOVWF       R0 
	MOVLW       0
	BTFSC       _alfa+1, 7 
	MOVLW       255
	MOVWF       R1 
	MOVF        R0, 0 
	MOVWF       TMR0H+0 
;p7e.c,124 :: 		TMR0L = alfa;
	MOVF        _alfa+0, 0 
	MOVWF       TMR0L+0 
;p7e.c,125 :: 		T0CON.TMR0ON = 1;
	BSF         T0CON+0, 7 
;p7e.c,126 :: 		Lcd_Init();
	CALL        _Lcd_Init+0, 0
;p7e.c,127 :: 		ADCON0.GO = 1;
	BSF         ADCON0+0, 2 
;p7e.c,128 :: 		while(1){
L_main21:
;p7e.c,129 :: 		}
	GOTO        L_main21
;p7e.c,130 :: 		}
L_end_main:
	GOTO        $+0
; end of _main
